; Function Attrs: nounwind uwtable
define internal i32 @tee_write(ptr noundef readonly captures(none) %0, ptr noundef %1, i32 noundef %2) #0 {
  %4 = getelementptr inbounds nuw i8, ptr %0, i64 16
  %5 = load ptr, ptr %4, align 8, !tbaa !9
  %6 = load i32, ptr %5, align 8, !tbaa !17
  %7 = icmp sgt i32 %6, 0
  br i1 %7, label %.lr.ph, label %._crit_edge

.lr.ph:                                           ; preds = %3
  %8 = getelementptr inbounds nuw i8, ptr %5, i64 8
  br label %9

9:                                                ; preds = %.lr.ph, %9
  %indvars.iv = phi i64 [ 0, %.lr.ph ], [ %indvars.iv.next, %9 ]
  %.01113 = phi i32 [ %2, %.lr.ph ], [ %spec.select, %9 ]
  %10 = load ptr, ptr %8, align 8, !tbaa !22
  %11 = getelementptr inbounds nuw %struct.ChildContext, ptr %10, i64 %indvars.iv
  %12 = load ptr, ptr %11, align 8, !tbaa !26
  %13 = tail call i32 @ffurl_write2(ptr noundef %12, ptr noundef %1, i32 noundef %2) #4
  %14 = icmp slt i32 %13, 0
  %spec.select = select i1 %14, i32 %13, i32 %.01113
  %indvars.iv.next = add nuw nsw i64 %indvars.iv, 1
  %15 = load i32, ptr %5, align 8, !tbaa !17
  %16 = sext i32 %15 to i64
  %17 = icmp slt i64 %indvars.iv.next, %16
  br i1 %17, label %9, label %._crit_edge, !llvm.loop !34

._crit_edge:                                      ; preds = %9, %3
  %.011.lcssa = phi i32 [ %2, %3 ], [ %spec.select, %9 ]
  ret i32 %.011.lcssa
}